; Function Attrs: nounwind uwtable
define ptr @l_Array_mapMUnsafe_map___at_Lean_Server_FileWorker_waitUnknownIdentifierRanges___spec__2___boxed(ptr noundef %0, ptr noundef %1, ptr noundef %2, ptr noundef %3) local_unnamed_addr #0 {
  %5 = getelementptr i8, ptr %1, i64 8
  %.val11 = load i64, ptr %5, align 8, !tbaa !12
  %6 = ptrtoint ptr %1 to i64
  %7 = and i64 %6, 1
  %.not = icmp eq i64 %7, 0
  br i1 %.not, label %8, label %lean_dec.exit8

8:                                                ; preds = %4
  %9 = load i32, ptr %1, align 4, !tbaa !8
  %10 = icmp sgt i32 %9, 1
  br i1 %10, label %11, label %13, !prof !11

11:                                               ; preds = %8
  %12 = add nsw i32 %9, -1
  store i32 %12, ptr %1, align 4, !tbaa !8
  br label %lean_dec.exit8

13:                                               ; preds = %8
  %.not.i = icmp eq i32 %9, 0
  br i1 %.not.i, label %lean_dec.exit8, label %14

14:                                               ; preds = %13
  tail call void @lean_dec_ref_cold(ptr noundef nonnull %1) #5
  br label %lean_dec.exit8

lean_dec.exit8:                                   ; preds = %14, %13, %11, %4
  %15 = getelementptr i8, ptr %2, i64 8
  %.val = load i64, ptr %15, align 8, !tbaa !12
  %16 = ptrtoint ptr %2 to i64
  %17 = and i64 %16, 1
  %.not12 = icmp eq i64 %17, 0
  br i1 %.not12, label %18, label %lean_dec.exit

18:                                               ; preds = %lean_dec.exit8
  %19 = load i32, ptr %2, align 4, !tbaa !8
  %20 = icmp sgt i32 %19, 1
  br i1 %20, label %21, label %23, !prof !11

21:                                               ; preds = %18
  %22 = add nsw i32 %19, -1
  store i32 %22, ptr %2, align 4, !tbaa !8
  br label %lean_dec.exit

23:                                               ; preds = %18
  %.not.i9 = icmp eq i32 %19, 0
  br i1 %.not.i9, label %lean_dec.exit, label %24

24:                                               ; preds = %23
  tail call void @lean_dec_ref_cold(ptr noundef nonnull %2) #5
  br label %lean_dec.exit

lean_dec.exit:                                    ; preds = %24, %23, %21, %lean_dec.exit8
  %25 = tail call ptr @l_Array_mapMUnsafe_map___at_Lean_Server_FileWorker_waitUnknownIdentifierRanges___spec__2(ptr noundef %0, i64 noundef %.val11, i64 noundef %.val, ptr noundef %3)
  ret ptr %25
}